; Function Attrs: nounwind uwtable
define range(i32 0, 2) i32 @ossl_statem_set_mutator(ptr noundef %0, ptr noundef %1, ptr noundef %2, ptr noundef %3) local_unnamed_addr #0 {
  %5 = icmp eq ptr %0, null
  br i1 %5, label %.thread, label %6

6:                                                ; preds = %4
  %7 = load i32, ptr %0, align 8, !tbaa !3
  %8 = icmp eq i32 %7, 0
  br i1 %8, label %.thread15, label %9

9:                                                ; preds = %6
  %10 = and i32 %7, 128
  %.not = icmp eq i32 %10, 0
  br i1 %.not, label %.thread, label %11

11:                                               ; preds = %9
  %12 = tail call ptr @ossl_quic_obj_get0_handshake_layer(ptr noundef nonnull %0) #11
  %13 = icmp eq ptr %12, null
  br i1 %13, label %.thread, label %.thread15

.thread15:                                        ; preds = %6, %11
  %14 = phi ptr [ %12, %11 ], [ %0, %6 ]
  %15 = getelementptr inbounds nuw i8, ptr %14, i64 208
  store ptr %1, ptr %15, align 8, !tbaa !15
  %16 = getelementptr inbounds nuw i8, ptr %14, i64 224
  store ptr %3, ptr %16, align 8, !tbaa !70
  %17 = getelementptr inbounds nuw i8, ptr %14, i64 216
  store ptr %2, ptr %17, align 8, !tbaa !71
  br label %.thread

.thread:                                          ; preds = %9, %4, %11, %.thread15
  %.0 = phi i32 [ 1, %.thread15 ], [ 0, %11 ], [ 0, %4 ], [ 0, %9 ]
  ret i32 %.0
}